target datalayout = "e-m:e-p270:32:32-p271:32:32-p272:64:64-i64:64-i128:128-f80:128-n8:16:32:64-S128"
target triple = "x86_64-pc-linux-gnu"

%struct.AVPacket = type { ptr, i64, i64, ptr, i32, i32, i32, ptr, i32, i64, i64, ptr, ptr, %struct.AVRational }
%struct.AVRational = type { i32, i32 }
%struct.AVStream = type { ptr, i32, i32, ptr, ptr, %struct.AVRational, i64, i64, i64, i32, i32, %struct.AVRational, ptr, %struct.AVRational, %struct.AVPacket, i32, %struct.AVRational, i32 }
%struct.AVFormatContext = type { ptr, ptr, ptr, ptr, ptr, i32, i32, ptr, i32, ptr, i32, ptr, ptr, i64, i64, i64, i32, i32, i32, i64, i64, ptr, i32, i32, ptr, i32, i32, i32, i32, ptr, i64, i32, i32, %struct.AVIOInterruptCB, i32, i32, i32, i32, i64, i32, i32, i32, i32, i32, i32, i32, i32, i32, i32, i32, i32, i64, i32, i32, i32, i32, i32, ptr, ptr, ptr, ptr, i32, ptr, ptr, ptr, ptr, i32, ptr, ptr, i64, ptr, ptr, ptr, i64 }
%struct.AVIOInterruptCB = type { ptr, ptr }
%struct.MpegTSWrite = type { ptr, %struct.MpegTSSection, %struct.MpegTSSection, %struct.MpegTSSection, ptr, ptr, i64, i64, i64, i32, i64, i32, i64, i32, i32, i64, i32, i32, i32, i32, i32, i32, i32, i32, i32, i32, i32, i32, i32, i32, i32, i64, i64, i64, i64, i64, i64, [256 x i8], i32 }
%struct.MpegTSSection = type { i32, i32, i32, ptr, ptr }
%struct.MpegTSWriteStream = type { i32, i32, i32, i32, i32, i32, i64, i64, i32, ptr, ptr, i32, i64, i64, i32, i32, ptr }

; Function Attrs: nounwind uwtable
define internal void @mpegts_deinit(ptr noundef %0) #0 {
  %2 = alloca ptr, align 8
  %3 = alloca ptr, align 8
  %4 = alloca ptr, align 8
  %5 = alloca i32, align 4
  %6 = alloca ptr, align 8
  %7 = alloca ptr, align 8
  store ptr %0, ptr %2, align 8, !tbaa !4
  call void @llvm.lifetime.start.p0(i64 8, ptr %3) #13
  %8 = load ptr, ptr %2, align 8, !tbaa !4
  %9 = getelementptr inbounds nuw %struct.AVFormatContext, ptr %8, i32 0, i32 3
  %10 = load ptr, ptr %9, align 8, !tbaa !41
  store ptr %10, ptr %3, align 8, !tbaa !42
  call void @llvm.lifetime.start.p0(i64 8, ptr %4) #13
  call void @llvm.lifetime.start.p0(i64 4, ptr %5) #13
  store i32 0, ptr %5, align 4, !tbaa !59
  br label %11

11:                                               ; preds = %47, %1
  %12 = load i32, ptr %5, align 4, !tbaa !59
  %13 = load ptr, ptr %2, align 8, !tbaa !4
  %14 = getelementptr inbounds nuw %struct.AVFormatContext, ptr %13, i32 0, i32 6
  %15 = load i32, ptr %14, align 4, !tbaa !90
  %16 = icmp ult i32 %12, %15
  br i1 %16, label %17, label %50

17:                                               ; preds = %11
  call void @llvm.lifetime.start.p0(i64 8, ptr %6) #13
  %18 = load ptr, ptr %2, align 8, !tbaa !4
  %19 = getelementptr inbounds nuw %struct.AVFormatContext, ptr %18, i32 0, i32 7
  %20 = load ptr, ptr %19, align 8, !tbaa !91
  %21 = load i32, ptr %5, align 4, !tbaa !59
  %22 = sext i32 %21 to i64
  %23 = getelementptr inbounds ptr, ptr %20, i64 %22
  %24 = load ptr, ptr %23, align 8, !tbaa !9
  store ptr %24, ptr %6, align 8, !tbaa !9
  call void @llvm.lifetime.start.p0(i64 8, ptr %7) #13
  %25 = load ptr, ptr %6, align 8, !tbaa !9
  %26 = getelementptr inbounds nuw %struct.AVStream, ptr %25, i32 0, i32 4
  %27 = load ptr, ptr %26, align 8, !tbaa !94
  store ptr %27, ptr %7, align 8, !tbaa !92
  %28 = load ptr, ptr %7, align 8, !tbaa !92
  %29 = icmp ne ptr %28, null
  br i1 %29, label %30, label %46

30:                                               ; preds = %17
  %31 = load ptr, ptr %7, align 8, !tbaa !92
  %32 = getelementptr inbounds nuw %struct.MpegTSWriteStream, ptr %31, i32 0, i32 16
  call void @av_freep(ptr noundef %32)
  %33 = load ptr, ptr %7, align 8, !tbaa !92
  %34 = getelementptr inbounds nuw %struct.MpegTSWriteStream, ptr %33, i32 0, i32 9
  call void @av_freep(ptr noundef %34)
  %35 = load ptr, ptr %7, align 8, !tbaa !92
  %36 = getelementptr inbounds nuw %struct.MpegTSWriteStream, ptr %35, i32 0, i32 10
  %37 = load ptr, ptr %36, align 8, !tbaa !120
  %38 = icmp ne ptr %37, null
  br i1 %38, label %39, label %45

39:                                               ; preds = %30
  %40 = load ptr, ptr %7, align 8, !tbaa !92
  %41 = getelementptr inbounds nuw %struct.MpegTSWriteStream, ptr %40, i32 0, i32 10
  %42 = load ptr, ptr %41, align 8, !tbaa !120
  call void @avformat_free_context(ptr noundef %42)
  %43 = load ptr, ptr %7, align 8, !tbaa !92
  %44 = getelementptr inbounds nuw %struct.MpegTSWriteStream, ptr %43, i32 0, i32 10
  store ptr null, ptr %44, align 8, !tbaa !120
  br label %45

45:                                               ; preds = %39, %30
  br label %46

46:                                               ; preds = %45, %17
  call void @llvm.lifetime.end.p0(i64 8, ptr %7) #13
  call void @llvm.lifetime.end.p0(i64 8, ptr %6) #13
  br label %47

47:                                               ; preds = %46
  %48 = load i32, ptr %5, align 4, !tbaa !59
  %49 = add nsw i32 %48, 1
  store i32 %49, ptr %5, align 4, !tbaa !59
  br label %11, !llvm.loop !143

50:                                               ; preds = %11
  store i32 0, ptr %5, align 4, !tbaa !59
  br label %51

51:                                               ; preds = %65, %50
  %52 = load i32, ptr %5, align 4, !tbaa !59
  %53 = load ptr, ptr %3, align 8, !tbaa !42
  %54 = getelementptr inbounds nuw %struct.MpegTSWrite, ptr %53, i32 0, i32 9
  %55 = load i32, ptr %54, align 8, !tbaa !107
  %56 = icmp slt i32 %52, %55
  br i1 %56, label %57, label %68

57:                                               ; preds = %51
  %58 = load ptr, ptr %3, align 8, !tbaa !42
  %59 = getelementptr inbounds nuw %struct.MpegTSWrite, ptr %58, i32 0, i32 4
  %60 = load ptr, ptr %59, align 8, !tbaa !108
  %61 = load i32, ptr %5, align 4, !tbaa !59
  %62 = sext i32 %61 to i64
  %63 = getelementptr inbounds ptr, ptr %60, i64 %62
  %64 = load ptr, ptr %63, align 8, !tbaa !109
  store ptr %64, ptr %4, align 8, !tbaa !109
  call void @av_freep(ptr noundef %4)
  br label %65

65:                                               ; preds = %57
  %66 = load i32, ptr %5, align 4, !tbaa !59
  %67 = add nsw i32 %66, 1
  store i32 %67, ptr %5, align 4, !tbaa !59
  br label %51, !llvm.loop !144

68:                                               ; preds = %51
  %69 = load ptr, ptr %3, align 8, !tbaa !42
  %70 = getelementptr inbounds nuw %struct.MpegTSWrite, ptr %69, i32 0, i32 4
  call void @av_freep(ptr noundef %70)
  call void @llvm.lifetime.end.p0(i64 4, ptr %5) #13
  call void @llvm.lifetime.end.p0(i64 8, ptr %4) #13
  call void @llvm.lifetime.end.p0(i64 8, ptr %3) #13
  ret void
}