; Function Attrs: nounwind uwtable
define internal void @mpegts_deinit(ptr noundef readonly captures(none) %0) #0 {
  %2 = alloca ptr, align 8
  %3 = getelementptr inbounds nuw i8, ptr %0, i64 24
  %4 = load ptr, ptr %3, align 8, !tbaa !38
  call void @llvm.lifetime.start.p0(i64 8, ptr nonnull %2) #12
  %5 = getelementptr inbounds nuw i8, ptr %0, i64 44
  %6 = load i32, ptr %5, align 4, !tbaa !134
  %.not24 = icmp eq i32 %6, 0
  br i1 %.not24, label %.preheader, label %.lr.ph

.lr.ph:                                           ; preds = %1
  %7 = getelementptr inbounds nuw i8, ptr %0, i64 48
  br label %12

.preheader:                                       ; preds = %24, %1
  %8 = getelementptr inbounds nuw i8, ptr %4, i64 144
  %9 = load i32, ptr %8, align 8, !tbaa !139
  %10 = icmp sgt i32 %9, 0
  br i1 %10, label %.lr.ph23, label %._crit_edge

.lr.ph23:                                         ; preds = %.preheader
  %11 = getelementptr inbounds nuw i8, ptr %4, i64 104
  br label %28

12:                                               ; preds = %.lr.ph, %24
  %indvars.iv = phi i64 [ 0, %.lr.ph ], [ %indvars.iv.next, %24 ]
  %13 = load ptr, ptr %7, align 8, !tbaa !22
  %14 = getelementptr inbounds nuw ptr, ptr %13, i64 %indvars.iv
  %15 = load ptr, ptr %14, align 8, !tbaa !35
  %16 = getelementptr inbounds nuw i8, ptr %15, i64 24
  %17 = load ptr, ptr %16, align 8, !tbaa !39
  %.not = icmp eq ptr %17, null
  br i1 %.not, label %24, label %18

18:                                               ; preds = %12
  %19 = getelementptr inbounds nuw i8, ptr %17, i64 96
  tail call void @av_freep(ptr noundef nonnull %19) #12
  %20 = getelementptr inbounds nuw i8, ptr %17, i64 48
  tail call void @av_freep(ptr noundef nonnull %20) #12
  %21 = getelementptr inbounds nuw i8, ptr %17, i64 56
  %22 = load ptr, ptr %21, align 8, !tbaa !65
  %.not20 = icmp eq ptr %22, null
  br i1 %.not20, label %24, label %23

23:                                               ; preds = %18
  tail call void @avformat_free_context(ptr noundef nonnull %22) #12
  store ptr null, ptr %21, align 8, !tbaa !65
  br label %24

24:                                               ; preds = %18, %23, %12
  %indvars.iv.next = add nuw nsw i64 %indvars.iv, 1
  %25 = load i32, ptr %5, align 4, !tbaa !134
  %26 = zext i32 %25 to i64
  %27 = icmp samesign ult i64 %indvars.iv.next, %26
  br i1 %27, label %12, label %.preheader, !llvm.loop !176

28:                                               ; preds = %.lr.ph23, %28
  %indvars.iv26 = phi i64 [ 0, %.lr.ph23 ], [ %indvars.iv.next27, %28 ]
  %29 = load ptr, ptr %11, align 8, !tbaa !140
  %30 = getelementptr inbounds nuw ptr, ptr %29, i64 %indvars.iv26
  %31 = load ptr, ptr %30, align 8, !tbaa !142
  store ptr %31, ptr %2, align 8, !tbaa !142
  call void @av_freep(ptr noundef nonnull %2) #12
  %indvars.iv.next27 = add nuw nsw i64 %indvars.iv26, 1
  %32 = load i32, ptr %8, align 8, !tbaa !139
  %33 = sext i32 %32 to i64
  %34 = icmp slt i64 %indvars.iv.next27, %33
  br i1 %34, label %28, label %._crit_edge, !llvm.loop !177

._crit_edge:                                      ; preds = %28, %.preheader
  %35 = getelementptr inbounds nuw i8, ptr %4, i64 104
  call void @av_freep(ptr noundef nonnull %35) #12
  call void @llvm.lifetime.end.p0(i64 8, ptr nonnull %2) #12
  ret void
}